Certificate:
    Data:
        Version: 1 (0x0)
        Serial Number: 4097 (0x1001)
        Signature Algorithm: sha256WithRSAEncryption
        Issuer: CN=Interm.
        Validity
            Not Before: May  2 23:03:40 2021 GMT
            Not After : Apr 30 23:03:40 2031 GMT
        Subject: CN=CN=host.docker.internal
        Subject Public Key Info:
            Public Key Algorithm: rsaEncryption
                RSA Public-Key: (2048 bit)
                Modulus:
                    00:b5:af:a8:c6:89:23:a3:5b:b4:30:7d:f9:56:9f:
                    40:05:f7:34:2c:01:84:d2:72:34:d4:d1:da:b6:30:
                    57:c0:12:cc:c0:1e:15:e0:53:67:8b:19:6d:b8:e3:
                    4c:98:ad:4c:e7:47:e0:3d:89:44:c8:2a:e2:2d:82:
                    af:5a:05:03:8d:7e:b0:7d:b3:2f:69:78:34:ab:33:
                    9a:46:4c:2f:10:e9:cd:ae:87:40:51:db:a2:8b:42:
                    69:54:ad:db:37:3f:33:fe:7b:dc:fb:a2:36:84:fa:
                    9a:4f:39:58:e9:28:3d:83:94:ad:32:75:91:a7:7a:
                    ec:e4:a6:d4:6c:cd:da:98:ee:66:9e:81:06:57:a0:
                    ff:34:aa:86:b7:1b:e4:39:97:bf:13:67:d3:90:d5:
                    1c:01:fd:c8:e6:1d:ff:72:f3:56:af:bb:cd:42:60:
                    f0:50:8b:c1:4b:ae:97:50:b2:aa:15:d6:1c:bb:bb:
                    a4:f5:cc:b0:66:8b:23:19:e5:43:bf:14:a7:4f:25:
                    aa:4f:c0:51:53:d0:90:bc:0e:fa:30:2e:ee:de:cc:
                    aa:32:1b:2a:06:33:eb:25:33:5a:09:d4:86:25:c9:
                    bf:b0:71:1f:d7:49:03:4d:67:76:21:1e:06:44:4a:
                    bc:64:09:a6:55:a7:c4:69:69:da:f7:53:e2:e6:6d:
                    98:1b
                Exponent: 65537 (0x10001)
    Signature Algorithm: sha256WithRSAEncryption
         90:cd:9a:de:69:4b:d4:61:82:94:03:af:fe:98:95:e4:46:33:
         2d:72:e0:21:bd:67:fa:59:11:03:47:ef:e3:f7:10:2a:8f:51:
         6c:32:58:b9:59:08:3b:72:f8:28:94:53:2f:12:3f:f1:05:50:
         62:84:e5:c7:aa:1d:28:73:2d:d8:2d:a8:ad:55:bb:15:be:7a:
         4f:23:14:d0:99:09:56:5c:48:51:b2:d2:70:ee:51:55:c9:c2:
         a0:27:8f:7a:0e:f4:20:69:31:63:f4:6f:91:e7:43:62:fe:61:
         c9:94:48:53:92:cd:46:a9:b9:ab:89:bf:22:bd:34:d8:79:1c:
         1d:ef:f4:d9:99:81:10:f6:d9:6d:26:e8:81:34:04:33:cc:54:
         e0:dc:75:44:d8:d4:c9:f9:62:45:7e:9f:ad:43:ac:0c:30:a6:
         cb:8e:e9:76:68:75:a0:40:0a:72:d3:9d:61:a2:0e:50:34:62:
         97:f0:64:11:87:c8:e9:70:21:59:98:a7:9c:6e:f6:02:df:08:
         cc:4c:1c:7f:90:fd:1d:95:75:c6:21:c5:ae:47:a6:a7:6f:48:
         d5:68:cb:dc:1e:9c:ca:fc:5a:dd:ad:b1:37:ec:db:22:bd:74:
         d4:5c:aa:d7:11:7f:0d:52:ed:f7:18:2a:94:fc:a9:7c:56:d8:
         cb:d4:df:5a
-----BEGIN CERTIFICATE-----
MIICqTCCAZECAhABMA0GCSqGSIb3DQEBCwUAMBIxEDAOBgNVBAMMB0ludGVybS4w
HhcNMjEwNTAyMjMwMzQwWhcNMzEwNDMwMjMwMzQwWjAiMSAwHgYDVQQDDBdDTj1o
b3N0LmRvY2tlci5pbnRlcm5hbDCCASIwDQYJKoZIhvcNAQEBBQADggEPADCCAQoC
ggEBALWvqMaJI6NbtDB9+VafQAX3NCwBhNJyNNTR2rYwV8ASzMAeFeBTZ4sZbbjj
TJitTOdH4D2JRMgq4i2Cr1oFA41+sH2zL2l4NKszmkZMLxDpza6HQFHbootCaVSt
2zc/M/573PuiNoT6mk85WOkoPYOUrTJ1kad67OSm1GzN2pjuZp6BBleg/zSqhrcb
5DmXvxNn05DVHAH9yOYd/3LzVq+7zUJg8FCLwUuul1CyqhXWHLu7pPXMsGaLIxnl
Q78Up08lqk/AUVPQkLwO+jAu7t7MqjIbKgYz6yUzWgnUhiXJv7BxH9dJA01ndiEe
BkRKvGQJplWnxGlp2vdT4uZtmBsCAwEAATANBgkqhkiG9w0BAQsFAAOCAQEAkM2a
3mlL1GGClAOv/piV5EYzLXLgIb1n+lkRA0fv4/cQKo9RbDJYuVkIO3L4KJRTLxI/
8QVQYoTlx6odKHMt2C2orVW7Fb56TyMU0JkJVlxIUbLScO5RVcnCoCePeg70IGkx
Y/RvkedDYv5hyZRIU5LNRqm5q4m/Ir002HkcHe/02ZmBEPbZbSbogTQEM8xU4Nx1
RNjUyfliRX6frUOsDDCmy47pdmh1oEAKctOdYaIOUDRil/BkEYfI6XAhWZinnG72
At8IzEwcf5D9HZV1xiHFrkemp29I1WjL3B6cyvxa3a2xN+zbIr101Fyq1xF/DVLt
9xgqlPypfFbYy9TfWg==
-----END CERTIFICATE-----
-----BEGIN CERTIFICATE-----
MIICsDCCAZigAwIBAgICEAAwDQYJKoZIhvcNAQELBQAwEjEQMA4GA1UEAwwHUm9v
dC1jYTAeFw0yMTA1MDIyMzAzMzlaFw0zMTA0MzAyMzAzMzlaMBIxEDAOBgNVBAMM
B0ludGVybS4wggEiMA0GCSqGSIb3DQEBAQUAA4IBDwAwggEKAoIBAQDIcNlgo9M6
+n+ZAkW+iIxuHHHFSvpwbIA+b3lQp+u71pP97II0EiXpDgDqYTd82P+aTbdu0/G/
oCs6TGk64DuNzyiNsDCWvccwdbHUXuXC3+J52c0jq3Oag1wyudIwrYTAMg4VBS5q
I8udTp96IIdJUXcWOXQx/SYDYyCEPcZxIiFVRM27aaWEj7E6maCCghfVWIOnK3sv
pBT45egXsV29sKaSrlOh29XsttxDB0lUdYrKGacmvUgTQMiGMycYRYVJXjQtq71E
XlRqABOjhpTltioRiGUPAvbPAF+AnkrPnn5zYPhfqApwnIWbwzbps1J/iWmYNKWs
iS467T/TScAlAgMBAAGjEDAOMAwGA1UdEwQFMAMBAf8wDQYJKoZIhvcNAQELBQAD
ggEBAA9szHMX8/YTmjR/E7XFDtnhpLGXAQvXo+ewsslR1o3XU30xwPb/W8IeYVj4
J38yqd7e6xIv2ILubHYQehFcMjjitj+JJA6Si+cOyx6dTsosbPwGxLOV96PikDBp
G2bOMkAeawzCaKDQeeALcVaBQE/lEr5yyNEK6Ejt8lCg0d77ob5r/CIHT2m51Dvl
zUeEmL/9vdrsHEa/H5/hcmh0p2VLuONRkM63CDQQFM3okpgq6n5wZiZbormG/513
CXlI8DZ0YT4cjh8HoFY8+GSNOP3O9de7Gk26NFUsDEmqlBGjqJtHS8jmpBwaZ65Q
wB/NrWbf4iT/pUJGePsHJe6TuuE=
-----END CERTIFICATE-----
